(dp0
S'800010000160007'
p1
V\u4eca\u65e5\u5934\u6761
p2
sS'800051005100001'
p3
V\u597d\u4eba\u597d\u4fe1\u79d1\u6280
p4
sS'800010001000017'
p5
V\u5317\u4eac\u5f00\u62d3\u660e\u5929
p6
sS'800010000050051'
p7
V\u5408\u4f17\u8d44\u7ba1
p8
sS'800010001000012'
p9
V\u6613\u4eab\u672a\u6765
p10
sS'800025002500002'
p11
V\u6c5f\u82cf\u6b27\u98de
p12
sS'800010001000018'
p13
V\u76db\u4e16\u5408\u4f17\uff08\u5168\u4e1a\u52a1\uff09
p14
sS'800010000050059'
p15
V\u534e\u590f\u6c47\u4e30
p16
sS'800073107310001'
p17
V\u6e56\u5357\u63a2\u6d77\u5927\u6570\u636e
p18
sS'800028002800002'
p19
V\u6210\u90fd\u5929\u59ff\u7f8e\u610f
p20
sS'800028002800001'
p21
V\u56db\u5ddd\u4e2d\u79d1
p22
sS'800010000050052'
p23
V\u5408\u4f17\u503a\u6743
p24
sS'800114900100001'
p25
V213123
p26
sS'800024002400001'
p27
V\u91d1\u6d69\u4fdd\u9669\u6c88\u9633\u5206\u516c\u53f8
p28
sS'800093009300002'
p29
Vcs
p30
sS'800037100140001'
p31
V\u6cb3\u5357\u82cf\u5546\u7535\u5b50
p32
sS'800022000050001'
p33
V\u5408\u4f17\u535a\u53d1
p34
sS'800010001000020'
p35
V\u5494\u5494\u623f\u94fe
p36
sS'800010000050063'
p37
V\u548c\u76ca\u6c47\u878d
p38
sS'800010000050062'
p39
V\u548c\u76ca\u8d22\u5bcc
p40
sS'800010001000025'
p41
V\u5317\u4eac\u6781\u6b65\u79d1\u6280
p42
sS'800010000050064'
p43
V\u5408\u4f17\u666e\u60e0
p44
sS'800010001000029'
p45
V\u5317\u4eac\u6c38\u7533\u79d1\u6280
p46
sS'800063106310001'
p47
V\u4e73\u5c71\u5e02\u4e1c\u65b9\u6c34\u57ce
p48
sS'800010001000019'
p49
V\u5317\u4eac\u534e\u666f\u8054
p50
sS'800114900250001'
p51
V\u6d4b\u8bd5
p52
sS'800075500140001'
p53
V\u6df1\u5733\u9a6c\u5c0f\u4e91
p54
sS'800020000050001'
p55
V\u534e\u6613\u76ae\u5177
p56
sS'800027000060017'
p57
V\u533b\u7597\u517b\u8001\u4e8b\u4e1a\u90e8
p58
sS'800027000150001'
p59
V\u5408\u4f17\u5065\u5eb7\uff08\u6b66\u6c49\uff09
p60
sS'800027000060013'
p61
V\u5408\u4f17\u4eba\u5bff
p62
sS'800025002500003'
p63
V\u6d4b\u8bd5321
p64
sS'800058005800001'
p65
V\u821f\u5c71\u91d1\u9ca4\u79d1
p66
sS'800059200140001'
p67
V\u95fd\u60e0\u901a
p68
sS'800045100070001'
p69
V\u5341\u516b\u5b50\u674e-\u4e94\u5e38\u5927\u7c73
p70
sS'800027002700003'
p71
V\u4ebf\u4f01\u8d62
p72
sS'800027002700002'
p73
V\u6b66\u6c49\u5408\u4f17\u91d1\u878d
p74
sS'800010000060070'
p75
V\u6d4b\u8bd5-1
p76
sS'800027000060015'
p77
V\u5408\u4f17\u4eba\u5bff-\u53d1\u85aa
p78
sS'800027000060014'
p79
V\u5408\u4f17\u4eba\u5bff
p80
sS'800053500100001'
p81
V\u6052\u4e30\u94f6\u884c
p82
sS'800027000060016'
p83
V\u80a1\u6743\u4e0d\u52a8\u4ea7\u6295\u8d44\u4e8b\u4e1a\u90e8
p84
sS'800091100020001'
p85
Vtest2
p86
sS'800027000050001'
p87
V\u5408\u4f17\u6613\u5b9d\uff08\u8d22\u52a1\uff09
p88
sS'800075607560001'
p89
V\u7545\u73a9\u79d1\u6280
p90
sS'800043104310001'
p91
V\u4ebf\u8054\u94f6\u884c
p92
sS'800057405740002'
p93
V\u5b81\u6ce2\u74dc\u74dc\u519c\u4e1a
p94
sS'800057405740001'
p95
V\u5b81\u6ce2\u5eb7\u666e\u8d5b\u8baf
p96
sS'800075500230001'
p97
V\u592a\u5e73\u8d22\u4ea7\u4fdd\u9669
p98
sS'800010000140001'
p99
V\u641c\u5f53\u7f51\uff08\u5317\u4eac\uff09
p100
sS'800024000050001'
p101
V\u6c88\u9633\u91d1\u878d\u5546\u8d38\u5f00\u53d1\u533a\u4e92\u8054\u5c0f\u989d\u8d37\u6b3e\u6709\u9650\u516c\u53f8
p102
sS'800024000050002'
p103
V\u6c88\u9633\u4e2d\u91d1\u798f\u5c0f\u8d37
p104
sS'800010000140002'
p105
V\u5584\u751f\u4e91\u5764
p106
sS'800029002900001'
p107
V\u897f\u5b89\u5b89\u666e\u751f\u7269
p108
sS'800055700140001'
p109
V\u5bbf\u5dde\u745e\u53f0\u6377
p110
sS'800010001000035'
p111
V\u5408\u4f17\u65f6\u4ee3\uff08\u5317\u4eac\uff09\u4f1a\u8bae\u670d\u52a1
p112
sS'800010001000032'
p113
V\u6613\u4eab\u672a\u6765\uff08\u5317\u4eac\uff09
p114
sS'800010001000033'
p115
V\u5317\u4eac\u4e2d\u79d1\u91d1\u8d22
p116
sS'800010001000030'
p117
V\u5317\u4eac\u6c38\u7533\u79d1\u6280
p118
sS'800010000050071'
p119
V\u66b4\u98ce\u6210\u4fe1
p120
sS'800028000220001'
p121
V\u798f\u5927\u521b\u610f\u6587\u5316
p122
sS'800010000160006'
p123
V\u4eca\u65e5\u5934\u6761
p124
sS'800010000160005'
p125
V\u4eca\u65e5\u5934\u6761
p126
sS'800010000160004'
p127
V\u4eca\u65e5\u5934\u6761
p128
sS'800010000160003'
p129
V\u4eca\u65e5\u5934\u6761
p130
sS'800010000160002'
p131
V\u4eca\u65e5\u5934\u6761
p132
sS'800010000160001'
p133
V\u4eca\u65e5\u5934\u6761
p134
sS'800010000160009'
p135
V\u5317\u4eac\u5fae\u64ad\u89c6\u754c
p136
sS'800010000160008'
p137
V\u4eca\u65e5\u5934\u6761
p138
sS'800089100050001'
p139
V\u897f\u85cf\u548c\u878d\u76ca\u901a-\u53d1\u85aa
p140
sS'800089100050002'
p141
V\u897f\u85cf\u548c\u76ca\u4ebf\u4fe1
p142
sS'800025000100001'
p143
V\u6d4b\u8bd5\u5546\u6237
p144
sS'800027000100001'
p145
V\u6d4b\u8bd5\u5546\u6237
p146
sS'800079307930001'
p147
V\u96c5\u6797\u73af\u4fdd\u4e0a\u9976
p148
sS'800027000050006'
p149
V\u5408\u4f17\u6613\u5b9d-\u7535\u5546
p150
sS'800027000050009'
p151
V\u5408\u4f17\u6613\u5b9d-\u5dee\u5f02\u6237
p152
sS'800010000060071'
p153
V\u5408\u4f17\u8d22\u9669
p154
sS'800075507550002'
p155
V\u6df1\u5733\u5e02\u521b\u65af\u6797\u7535\u5b50
p156
sS'800010000060073'
p157
V\u76db\u4e16\u5408\u4f17
p158
sS'800010000060072'
p159
V\u5408\u4f17\u8d22\u9669-\u53d1\u85aa
p160
sS'800075507550006'
p161
V\u6df1\u5733\u5e02\u4e1e\u4e30\u73af\u4fdd
p162
sS'800075507550009'
p163
V\u6df1\u5733\u5e02\u7406\u6b63\u79d1\u6280
p164
sS'800010000160010'
p165
V\u5317\u4eac\u5fae\u64ad\u89c6\u754c
p166
sS'800010000160011'
p167
V\u5317\u4eac\u5fae\u64ad\u89c6\u754c
p168
sS'800010000160012'
p169
V\u5317\u4eac\u5fae\u64ad\u89c6\u754c
p170
sS'800037103710002'
p171
V\u90d1\u5dde\u91d1\u521b\u5eb7
p172
sS'800021002100012'
p173
V\u539a\u4e1c\u91d1\u878d
p174
sS'800022000100001'
p175
V\u4e2d\u4fe1\u94f6\u884c\u5929\u6d25\u5206\u884c
p176
sS'800027000050012'
p177
V\u6d4b\u8bd5\u8d26\u6237
p178
sS'800027000050010'
p179
V\u6b66\u6c49\u5c0f\u8d37
p180
sS'800027000050007'
p181
V\u5408\u4f17\u6613\u5b9d-\u4e2a\u4eba\u7aef
p182
sS'800027000120001'
p183
V\u6b66\u6c49\u6613\u623f\u7f51
p184
sS'800075507550012'
p185
V\u6df1\u5733\u5e02\u76c8\u9001\u79d1\u6280
p186
sS'800075507550017'
p187
V\u6df1\u5733\u5e02\u5168\u6728\u884c\u7535\u5b50
p188
sS'800075507550018'
p189
V\u6df1\u5733\u9752\u5c71\u5546\u4e1a\u4fdd\u7406
p190
sS'800010000050014'
p191
V\u65b0\u4e91\u548c\u521b
p192
sS'800010000050015'
p193
V\u4e2d\u91d1\u798f\u5c0f\u8d37
p194
sS'800010000050017'
p195
V\u957f\u6c47\u8d22\u5bcc
p196
sS'800000000250001'
p197
V\u5546\u6237\u5165\u7f511
p198
sS'800010000020019'
p199
V\u5317\u4eac\u6c7d\u8f66
p200
sS'800010000050060'
p201
V\u751f\u6d3b\u4e07\u7ef4
p202
sS'800010001000022'
p203
V\u5317\u4eac\u5bcc\u8d5b\u539a\u5fb7
p204
sS'800076007600001'
p205
V\u4e2d\u5c71\u94a7\u701a
p206
sS'800077107710001'
p207
V\u4eba\u5bff\u5065\u5eb7\u4ea7\u4e1a\uff08\u5357\u5b81\uff09
p208
sS'800010001000024'
p209
V\u6f14\u793a\u5546\u6237
p210
sS'800021002100002'
p211
V\u4e0a\u6d77\u8bfa\u4e9a\u91d1\u901a
p212
sS'800021002100001'
p213
V\u4e0a\u6d77\u767e\u796f\u5546\u52a1
p214
sS'800010000040009'
p215
Vtest
p216
sS'800021002100006'
p217
V\u4e0a\u6d77\u5ce1\u5c01\u7535\u5b50
p218
sS'800021002100005'
p219
V\u5fae\u989d\u901f\u8fbe\u91d1\u878d\u4fe1\u606f
p220
sS'800021002100004'
p221
V\u4e0a\u6d77\u701a\u9014\u7f51\u7edc
p222
sS'800021002100009'
p223
V\u4e0a\u6d77\u5178\u864e\u5b9e\u4e1a
p224
sS'800010000050024'
p225
V\u7545\u6e38\u79d1\u6280
p226
sS'800075500100001'
p227
V\u6df1\u5733\u79c0\u5b9e\u5546\u4e1a\u4fdd\u7406
p228
sS'800010001000005'
p229
V\u5408\u4f17\u666e\u60e0
p230
sS'800010001000004'
p231
V\u5408\u4f17\u666e\u60e0\u5317\u5206-\u53d1\u85aa
p232
sS'800010000050043'
p233
V\u957f\u6c47\u6536\u5165\u6237
p234
sS'800087108710001'
p235
V\u6606\u660e\u76d6\u805a
p236
sS'800000000180001'
p237
V\u5165\u7f512
p238
sS'800010001000008'
p239
V\u5317\u4eac\u76c8\u884d\u7f51\u7edc
p240
sS'800075500050001'
p241
V\u660e\u7279\u5546\u4e1a\u4fdd\u7406
p242
sS'800021002100010'
p243
V\u4e0a\u6d77\u4f20\u793c\u6295\u8d44
p244
sS'800021002100011'
p245
V\u4e0a\u6d77\u8bfa\u4e9a\u91d1\u901a
p246
sS'800037103710001'
p247
V\u90d1\u5dde\u94b1\u901a\u4fe1\u606f
p248
sS'800021002100013'
p249
V\u4e0a\u6d77\u8fb0\u9274\u91d1\u878d
p250
sS'800021002100014'
p251
V\u6db5\u7ead\uff08\u4e0a\u6d77\uff09\u91d1\u878d\u4fe1\u606f
p252
sS'800010000050036'
p253
V\u5317\u4eac\u6cc9\u8d1d\u79d1\u6280
p254
sS'800010001000031'
p255
V\u5317\u4eac\u56fd\u667a\u4e91\u9f0e
p256
sS'800022002200001'
p257
V\u5929\u6d25\u6c47\u901a\u521b\u8054
p258
sS'800105100260001'
p259
V\u6d4b\u8bd5\u5546\u6237-\u7b80\u8981\u65e5\u5fd7
p260
s.